target datalayout = "e-m:e-p270:32:32-p271:32:32-p272:64:64-i64:64-i128:128-f80:128-n8:16:32:64-S128"
target triple = "x86_64-pc-linux-gnu"

%struct.strbuf = type { i64, i64, ptr }
%struct.stash_info = type { %struct.object_id, %struct.object_id, %struct.object_id, %struct.object_id, %struct.object_id, %struct.object_id, %struct.object_id, %struct.object_id, %struct.strbuf, i32, i32 }
%struct.object_id = type { [32 x i8], i32 }
%struct.option = type { i32, i32, ptr, ptr, ptr, ptr, i32, ptr, i64, ptr, i64, ptr }

@.str.12 = private unnamed_addr constant [6 x i8] c"quiet\00", align 1
@.str.13 = private unnamed_addr constant [29 x i8] c"be quiet, only report errors\00", align 1
@.str.25 = private unnamed_addr constant [1 x i8] zeroinitializer, align 1
@git_gettext_enabled = external global i32, align 4
@git_stash_drop_usage = internal constant [2 x ptr] [ptr @.str.63, ptr null], align 16
@.str.64 = private unnamed_addr constant [30 x i8] c"'%s' is not a stash reference\00", align 1

; Function Attrs: inlinehint nounwind uwtable
define internal i32 @const_error() #5 {
  ret i32 -1
}

; Function Attrs: inlinehint nounwind uwtable
define internal ptr @_(ptr noundef %0) #5 {
  %2 = alloca ptr, align 8
  %3 = alloca ptr, align 8
  store ptr %0, ptr %3, align 8, !tbaa !11
  %4 = load ptr, ptr %3, align 8, !tbaa !11
  %5 = load i8, ptr %4, align 1, !tbaa !58
  %6 = icmp ne i8 %5, 0
  br i1 %6, label %8, label %7

7:                                                ; preds = %1
  store ptr @.str.25, ptr %2, align 8
  br label %16

8:                                                ; preds = %1
  %9 = load i32, ptr @git_gettext_enabled, align 4, !tbaa !4
  %10 = icmp ne i32 %9, 0
  br i1 %10, label %13, label %11

11:                                               ; preds = %8
  %12 = load ptr, ptr %3, align 8, !tbaa !11
  store ptr %12, ptr %2, align 8
  br label %16

13:                                               ; preds = %8
  %14 = load ptr, ptr %3, align 8, !tbaa !11
  %15 = call ptr @dcgettext(ptr noundef null, ptr noundef %14, i32 noundef 5) #9
  store ptr %15, ptr %2, align 8
  br label %16

16:                                               ; preds = %13, %11, %7
  %17 = load ptr, ptr %2, align 8
  ret ptr %17
}

; Function Attrs: nounwind uwtable
define internal void @free_stash_info(ptr noundef %0) #0 {
  %2 = alloca ptr, align 8
  store ptr %0, ptr %2, align 8, !tbaa !109
  %3 = load ptr, ptr %2, align 8, !tbaa !109
  %4 = getelementptr inbounds nuw %struct.stash_info, ptr %3, i32 0, i32 8
  call void @strbuf_release(ptr noundef %4)
  ret void
}

; Function Attrs: nounwind uwtable
define internal i32 @get_stash_info_assert(ptr noundef %0, i32 noundef %1, ptr noundef %2) #0 {
  %4 = alloca i32, align 4
  %5 = alloca ptr, align 8
  %6 = alloca i32, align 4
  %7 = alloca ptr, align 8
  %8 = alloca i32, align 4
  %9 = alloca i32, align 4
  store ptr %0, ptr %5, align 8, !tbaa !109
  store i32 %1, ptr %6, align 4, !tbaa !4
  store ptr %2, ptr %7, align 8, !tbaa !8
  call void @llvm.lifetime.start.p0(i64 4, ptr %8) #9
  %10 = load ptr, ptr %5, align 8, !tbaa !109
  %11 = load i32, ptr %6, align 4, !tbaa !4
  %12 = load ptr, ptr %7, align 8, !tbaa !8
  %13 = call i32 @get_stash_info(ptr noundef %10, i32 noundef %11, ptr noundef %12)
  store i32 %13, ptr %8, align 4, !tbaa !4
  %14 = load i32, ptr %8, align 4, !tbaa !4
  %15 = icmp slt i32 %14, 0
  br i1 %15, label %16, label %18

16:                                               ; preds = %3
  %17 = load i32, ptr %8, align 4, !tbaa !4
  store i32 %17, ptr %4, align 4
  store i32 1, ptr %9, align 4
  br label %32

18:                                               ; preds = %3
  %19 = load ptr, ptr %5, align 8, !tbaa !109
  %20 = getelementptr inbounds nuw %struct.stash_info, ptr %19, i32 0, i32 9
  %21 = load i32, ptr %20, align 8, !tbaa !54
  %22 = icmp ne i32 %21, 0
  br i1 %22, label %31, label %23

23:                                               ; preds = %18
  %24 = call ptr @_(ptr noundef @.str.64)
  %25 = load ptr, ptr %5, align 8, !tbaa !109
  %26 = getelementptr inbounds nuw %struct.stash_info, ptr %25, i32 0, i32 8
  %27 = getelementptr inbounds nuw %struct.strbuf, ptr %26, i32 0, i32 2
  %28 = load ptr, ptr %27, align 8, !tbaa !113
  %29 = call i32 (ptr, ...) @error(ptr noundef %24, ptr noundef %28)
  %30 = call i32 @const_error()
  store i32 %30, ptr %4, align 4
  store i32 1, ptr %9, align 4
  br label %32

31:                                               ; preds = %18
  store i32 0, ptr %4, align 4
  store i32 1, ptr %9, align 4
  br label %32

32:                                               ; preds = %31, %23, %16
  call void @llvm.lifetime.end.p0(i64 4, ptr %8) #9
  %33 = load i32, ptr %4, align 4
  ret i32 %33
}

; Function Attrs: nounwind uwtable
define internal i32 @drop_stash(i32 noundef %0, ptr noundef %1, ptr noundef %2, ptr noundef %3) #0 {
  %5 = alloca i32, align 4
  %6 = alloca ptr, align 8
  %7 = alloca ptr, align 8
  %8 = alloca ptr, align 8
  %9 = alloca i32, align 4
  %10 = alloca i32, align 4
  %11 = alloca %struct.stash_info, align 8
  %12 = alloca [2 x %struct.option], align 16
  store i32 %0, ptr %5, align 4, !tbaa !4
  store ptr %1, ptr %6, align 8, !tbaa !8
  store ptr %2, ptr %7, align 8, !tbaa !11
  store ptr %3, ptr %8, align 8, !tbaa !13
  call void @llvm.lifetime.start.p0(i64 4, ptr %9) #9
  store i32 -1, ptr %9, align 4, !tbaa !4
  call void @llvm.lifetime.start.p0(i64 4, ptr %10) #9
  store i32 0, ptr %10, align 4, !tbaa !4
  call void @llvm.lifetime.start.p0(i64 320, ptr %11) #9
  call void @llvm.memcpy.p0.p0.i64(ptr align 8 %11, ptr align 8 @__const.drop_stash.info, i64 320, i1 false)
  call void @llvm.lifetime.start.p0(i64 176, ptr %12) #9
  call void @llvm.memset.p0.i64(ptr align 16 %12, i8 0, i64 176, i1 false)
  %13 = getelementptr inbounds nuw %struct.option, ptr %12, i32 0, i32 0
  store i32 8, ptr %13, align 8, !tbaa !16
  %14 = getelementptr inbounds nuw %struct.option, ptr %12, i32 0, i32 1
  store i32 113, ptr %14, align 4, !tbaa !19
  %15 = getelementptr inbounds nuw %struct.option, ptr %12, i32 0, i32 2
  store ptr @.str.12, ptr %15, align 8, !tbaa !20
  %16 = getelementptr inbounds nuw %struct.option, ptr %12, i32 0, i32 3
  store ptr %10, ptr %16, align 8, !tbaa !21
  %17 = getelementptr inbounds nuw %struct.option, ptr %12, i32 0, i32 5
  store ptr @.str.13, ptr %17, align 8, !tbaa !23
  %18 = getelementptr inbounds nuw %struct.option, ptr %12, i32 0, i32 6
  store i32 2, ptr %18, align 8, !tbaa !24
  %19 = getelementptr inbounds %struct.option, ptr %12, i64 1
  %20 = getelementptr inbounds nuw %struct.option, ptr %19, i32 0, i32 0
  store i32 0, ptr %20, align 8, !tbaa !16
  %21 = load i32, ptr %5, align 4, !tbaa !4
  %22 = load ptr, ptr %6, align 8, !tbaa !8
  %23 = load ptr, ptr %7, align 8, !tbaa !11
  %24 = getelementptr inbounds [2 x %struct.option], ptr %12, i64 0, i64 0
  %25 = call i32 @parse_options(i32 noundef %21, ptr noundef %22, ptr noundef %23, ptr noundef %24, ptr noundef @git_stash_drop_usage, i32 noundef 0)
  store i32 %25, ptr %5, align 4, !tbaa !4
  %26 = load i32, ptr %5, align 4, !tbaa !4
  %27 = load ptr, ptr %6, align 8, !tbaa !8
  %28 = call i32 @get_stash_info_assert(ptr noundef %11, i32 noundef %26, ptr noundef %27)
  %29 = icmp ne i32 %28, 0
  br i1 %29, label %30, label %31

30:                                               ; preds = %4
  br label %34

31:                                               ; preds = %4
  %32 = load i32, ptr %10, align 4, !tbaa !4
  %33 = call i32 @do_drop_stash(ptr noundef %11, i32 noundef %32)
  store i32 %33, ptr %9, align 4, !tbaa !4
  br label %34

34:                                               ; preds = %31, %30
  call void @free_stash_info(ptr noundef %11)
  %35 = load i32, ptr %9, align 4, !tbaa !4
  call void @llvm.lifetime.end.p0(i64 176, ptr %12) #9
  call void @llvm.lifetime.end.p0(i64 320, ptr %11) #9
  call void @llvm.lifetime.end.p0(i64 4, ptr %10) #9
  call void @llvm.lifetime.end.p0(i64 4, ptr %9) #9
  ret i32 %35
}