; Function Attrs: nounwind uwtable
define internal range(i32 -1, 1) i32 @drop_stash(i32 noundef %0, ptr noundef %1, ptr noundef %2, ptr readnone captures(none) %3) #0 {
  %5 = alloca i32, align 4
  %6 = alloca %struct.stash_info, align 8
  %7 = alloca [2 x %struct.option], align 16
  call void @llvm.lifetime.start.p0(i64 4, ptr nonnull %5) #15
  store i32 0, ptr %5, align 4, !tbaa !42
  call void @llvm.lifetime.start.p0(i64 320, ptr nonnull %6) #15
  call void @llvm.memcpy.p0.p0.i64(ptr noundef nonnull align 8 dereferenceable(320) %6, ptr noundef nonnull align 8 dereferenceable(320) @__const.do_push_stash.info, i64 320, i1 false)
  call void @llvm.lifetime.start.p0(i64 176, ptr nonnull %7) #15
  %8 = getelementptr inbounds nuw i8, ptr %7, i64 16
  call void @llvm.memset.p0.i64(ptr noundef nonnull align 16 dereferenceable(176) %8, i8 0, i64 160, i1 false)
  store i32 8, ptr %7, align 16, !tbaa !8
  %9 = getelementptr inbounds nuw i8, ptr %7, i64 4
  store i32 113, ptr %9, align 4, !tbaa !13
  %10 = getelementptr inbounds nuw i8, ptr %7, i64 8
  store ptr @.str.12, ptr %10, align 8, !tbaa !14
  %11 = getelementptr inbounds nuw i8, ptr %7, i64 16
  store ptr %5, ptr %11, align 16, !tbaa !15
  %12 = getelementptr inbounds nuw i8, ptr %7, i64 32
  store ptr @.str.13, ptr %12, align 16, !tbaa !44
  %13 = getelementptr inbounds nuw i8, ptr %7, i64 40
  store i32 2, ptr %13, align 8, !tbaa !17
  %14 = call i32 @parse_options(i32 noundef %0, ptr noundef %1, ptr noundef %2, ptr noundef nonnull %7, ptr noundef nonnull @git_stash_drop_usage, i32 noundef 0) #15
  %15 = call fastcc i32 @get_stash_info(ptr noundef nonnull %6, i32 noundef %14, ptr noundef readonly %1)
  %16 = icmp slt i32 %15, 0
  br i1 %16, label %get_stash_info_assert.exit.thread, label %17

17:                                               ; preds = %4
  %18 = getelementptr inbounds nuw i8, ptr %6, i64 312
  %19 = load i32, ptr %18, align 8, !tbaa !47
  %.not.i = icmp eq i32 %19, 0
  br i1 %.not.i, label %20, label %get_stash_info_assert.exit

20:                                               ; preds = %17
  %21 = load i32, ptr @git_gettext_enabled, align 4, !tbaa !42
  %.not4.i.i = icmp eq i32 %21, 0
  br i1 %.not4.i.i, label %_.exit.i, label %22

22:                                               ; preds = %20
  %23 = call ptr @dcgettext(ptr noundef null, ptr noundef nonnull @.str.64, i32 noundef 5) #15
  br label %_.exit.i

_.exit.i:                                         ; preds = %22, %20
  %.0.i.i = phi ptr [ %23, %22 ], [ @.str.64, %20 ]
  %24 = getelementptr inbounds nuw i8, ptr %6, i64 304
  %25 = load ptr, ptr %24, align 8, !tbaa !51
  %26 = call i32 (ptr, ...) @error(ptr noundef %.0.i.i, ptr noundef %25) #15
  br label %get_stash_info_assert.exit.thread

get_stash_info_assert.exit:                       ; preds = %17
  %27 = load i32, ptr %5, align 4, !tbaa !42
  %28 = call fastcc i32 @do_drop_stash(ptr noundef %6, i32 noundef %27)
  br label %get_stash_info_assert.exit.thread

get_stash_info_assert.exit.thread:                ; preds = %4, %_.exit.i, %get_stash_info_assert.exit
  %.0 = phi i32 [ %28, %get_stash_info_assert.exit ], [ -1, %_.exit.i ], [ -1, %4 ]
  %29 = getelementptr inbounds nuw i8, ptr %6, i64 288
  call void @strbuf_release(ptr noundef nonnull %29) #15
  call void @llvm.lifetime.end.p0(i64 176, ptr nonnull %7) #15
  call void @llvm.lifetime.end.p0(i64 320, ptr nonnull %6) #15
  call void @llvm.lifetime.end.p0(i64 4, ptr nonnull %5) #15
  ret i32 %.0
}